; Function Attrs: nounwind uwtable
define internal void @php_avif_stream_skip(ptr noundef %0, i64 noundef %1) #0 {
  %3 = icmp eq ptr %0, null
  br i1 %3, label %10, label %4

4:                                                ; preds = %2
  %5 = load ptr, ptr %0, align 8
  %6 = icmp eq ptr %5, null
  br i1 %6, label %10, label %7

7:                                                ; preds = %4
  %8 = tail call i32 @_php_stream_seek(ptr noundef nonnull %5, i64 noundef %1, i32 noundef 1) #13
  %.not = icmp eq i32 %8, 0
  br i1 %.not, label %10, label %9

9:                                                ; preds = %7
  store ptr null, ptr %0, align 8
  br label %10

10:                                               ; preds = %2, %4, %9, %7
  ret void
}